target datalayout = "e-m:e-p270:32:32-p271:32:32-p272:64:64-i64:64-i128:128-f80:128-n8:16:32:64-S128"
target triple = "x86_64-pc-linux-gnu"

@.str.4 = private unnamed_addr constant [2 x i8] c"\0A\00", align 1
@.str.5 = private unnamed_addr constant [38 x i8] c"    xilinx_srl [options] [selection]\0A\00", align 1
@.str.6 = private unnamed_addr constant [79 x i8] c"This pass converts chains of built-in flops (bit-level: $_DFF_[NP]_, $_DFFE_*\0A\00", align 1
@.str.7 = private unnamed_addr constant [76 x i8] c"and word-level: $dff, $dffe) as well as Xilinx flops (FDRE, FDRE_1) into a\0A\00", align 1
@.str.8 = private unnamed_addr constant [74 x i8] c"$__XILINX_SHREG cell. Chains must be of the same cell type, clock, clock\0A\00", align 1
@.str.9 = private unnamed_addr constant [57 x i8] c"polarity, enable, and enable polarity (where relevant).\0A\00", align 1
@.str.10 = private unnamed_addr constant [80 x i8] c"Flops with resets cannot be mapped to Xilinx devices and will not be inferred.\0A\00", align 1
@.str.11 = private unnamed_addr constant [15 x i8] c"    -minlen N\0A\00", align 1
@.str.12 = private unnamed_addr constant [52 x i8] c"        min length of shift register (default = 3)\0A\00", align 1
@.str.13 = private unnamed_addr constant [12 x i8] c"    -fixed\0A\00", align 1
@.str.14 = private unnamed_addr constant [45 x i8] c"        infer fixed-length shift registers.\0A\00", align 1
@.str.15 = private unnamed_addr constant [15 x i8] c"    -variable\0A\00", align 1
@.str.16 = private unnamed_addr constant [79 x i8] c"        infer variable-length shift registers (i.e. fixed-length shifts where\0A\00", align 1
@.str.17 = private unnamed_addr constant [56 x i8] c"        each element also fans-out to a $shiftx cell).\0A\00", align 1

; Function Attrs: mustprogress uwtable
define internal void @_ZN12_GLOBAL__N_113XilinxSrlPass4helpEv(ptr noundef nonnull align 8 dereferenceable(104) %0) unnamed_addr #4 align 2 {
  %2 = alloca ptr, align 8
  store ptr %0, ptr %2, align 8, !tbaa !6
  call void (ptr, ...) @_ZN5Yosys3logEPKcz(ptr noundef @.str.4)
  call void (ptr, ...) @_ZN5Yosys3logEPKcz(ptr noundef @.str.5)
  call void (ptr, ...) @_ZN5Yosys3logEPKcz(ptr noundef @.str.4)
  call void (ptr, ...) @_ZN5Yosys3logEPKcz(ptr noundef @.str.6)
  call void (ptr, ...) @_ZN5Yosys3logEPKcz(ptr noundef @.str.7)
  call void (ptr, ...) @_ZN5Yosys3logEPKcz(ptr noundef @.str.8)
  call void (ptr, ...) @_ZN5Yosys3logEPKcz(ptr noundef @.str.9)
  call void (ptr, ...) @_ZN5Yosys3logEPKcz(ptr noundef @.str.10)
  call void (ptr, ...) @_ZN5Yosys3logEPKcz(ptr noundef @.str.4)
  call void (ptr, ...) @_ZN5Yosys3logEPKcz(ptr noundef @.str.11)
  call void (ptr, ...) @_ZN5Yosys3logEPKcz(ptr noundef @.str.12)
  call void (ptr, ...) @_ZN5Yosys3logEPKcz(ptr noundef @.str.4)
  call void (ptr, ...) @_ZN5Yosys3logEPKcz(ptr noundef @.str.13)
  call void (ptr, ...) @_ZN5Yosys3logEPKcz(ptr noundef @.str.14)
  call void (ptr, ...) @_ZN5Yosys3logEPKcz(ptr noundef @.str.4)
  call void (ptr, ...) @_ZN5Yosys3logEPKcz(ptr noundef @.str.15)
  call void (ptr, ...) @_ZN5Yosys3logEPKcz(ptr noundef @.str.16)
  call void (ptr, ...) @_ZN5Yosys3logEPKcz(ptr noundef @.str.17)
  call void (ptr, ...) @_ZN5Yosys3logEPKcz(ptr noundef @.str.4)
  ret void
}